target datalayout = "e-m:e-p270:32:32-p271:32:32-p272:64:64-i64:64-i128:128-f80:128-n8:16:32:64-S128"
target triple = "x86_64-pc-linux-gnu"

%struct.anon = type { %struct.Type_, %struct.Type_, %struct.Type_, %struct.Type_, %struct.Type_, %struct.Type_, %struct.Type_, %struct.Type_, %struct.Type_, %struct.Type_, %struct.Type_, %struct.Type_, %struct.Type_, %struct.Type_, %struct.Type_, %struct.Type_, %struct.Type_, %struct.Type_, %struct.Type_, %struct.Type_, %struct.Type_, %struct.Type_, %struct.Type_, %struct.Type_, %struct.Type_, %struct.Type_, %struct.Type_, %struct.Type_, %struct.Type_, %struct.Type_ }
%struct.Type_ = type { i32, ptr, ptr, ptr, %union.anon, ptr, ptr, %union.anon.1 }
%union.anon = type { ptr }
%union.anon.1 = type { %struct.TypeFunction }
%struct.TypeFunction = type { ptr, ptr, ptr }
%union.SourceSpan = type { i64 }
%struct.Decl_ = type { ptr, ptr, %union.SourceSpan, i64, %union.anon.3, i32, %union.anon.4, i64, ptr, ptr, ptr, %union.anon.5 }
%union.anon.3 = type { ptr }
%union.anon.4 = type { i16 }
%union.anon.5 = type { %struct.FuncDecl }
%struct.FuncDecl = type { i32, [4 x i8], %struct.Signature_, i32, i32, %union.anon.12 }
%struct.Signature_ = type <{ %struct.CalleeAttributes, i16, i8, i32, i32, [4 x i8], ptr }>
%struct.CalleeAttributes = type { i8 }
%union.anon.12 = type { %struct.anon.13 }
%struct.anon.13 = type { i16, %union.anon.14 }
%union.anon.14 = type { ptr }
%struct.TypeArray = type { ptr, i32 }
%struct.anon.6 = type { ptr, ptr, %union.anon.7 }
%union.anon.7 = type { %struct.BitStructDecl }
%struct.BitStructDecl = type { ptr, ptr, i8 }
%struct.TypeInfo_ = type { i16, ptr, %union.SourceSpan, %union.anon.54 }
%union.anon.54 = type { %struct.anon.55 }
%struct.anon.55 = type { ptr, ptr }
%struct.EnumDecl = type { ptr, ptr, ptr }
%struct.StructDecl = type { i32, ptr, i32, i16 }

@t = internal global %struct.anon zeroinitializer, align 8
@type_iptr = dso_local global ptr getelementptr (i8, ptr @t, i64 1520), align 8
@.str = private unnamed_addr constant [36 x i8] c"FATAL ERROR %s -> in %s @ in %s:%d \00", align 1
@.str.2 = private unnamed_addr constant [106 x i8] c"generated/home/dtcxzyw/WorkSpace/Projects/compilers/llvm-opt-benchmark/bench/c3c/c3c/src/compiler/types.c\00", align 1
@.str.17 = private unnamed_addr constant [22 x i8] c"Should be unreachable\00", align 1
@__func__.type_size = private unnamed_addr constant [10 x i8] c"type_size\00", align 1
@size_subarray = internal global i32 0, align 4

; Function Attrs: nounwind uwtable
define internal i32 @aligned_offset(i32 noundef %0, i32 noundef %1) #0 {
  %3 = alloca i32, align 4
  %4 = alloca i32, align 4
  store i32 %0, ptr %3, align 4
  store i32 %1, ptr %4, align 4
  %5 = load i32, ptr %3, align 4
  %6 = load i32, ptr %4, align 4
  %7 = add i32 %5, %6
  %8 = sub i32 %7, 1
  %9 = load i32, ptr %4, align 4
  %10 = udiv i32 %8, %9
  %11 = load i32, ptr %4, align 4
  %12 = mul i32 %10, %11
  ret i32 %12
}

; Function Attrs: nounwind uwtable
define internal i32 @next_highest_power_of_2(i32 noundef %0) #0 {
  %2 = alloca i32, align 4
  store i32 %0, ptr %2, align 4
  %3 = load i32, ptr %2, align 4
  %4 = add i32 %3, -1
  store i32 %4, ptr %2, align 4
  %5 = load i32, ptr %2, align 4
  %6 = lshr i32 %5, 1
  %7 = load i32, ptr %2, align 4
  %8 = or i32 %7, %6
  store i32 %8, ptr %2, align 4
  %9 = load i32, ptr %2, align 4
  %10 = lshr i32 %9, 2
  %11 = load i32, ptr %2, align 4
  %12 = or i32 %11, %10
  store i32 %12, ptr %2, align 4
  %13 = load i32, ptr %2, align 4
  %14 = lshr i32 %13, 4
  %15 = load i32, ptr %2, align 4
  %16 = or i32 %15, %14
  store i32 %16, ptr %2, align 4
  %17 = load i32, ptr %2, align 4
  %18 = lshr i32 %17, 8
  %19 = load i32, ptr %2, align 4
  %20 = or i32 %19, %18
  store i32 %20, ptr %2, align 4
  %21 = load i32, ptr %2, align 4
  %22 = lshr i32 %21, 16
  %23 = load i32, ptr %2, align 4
  %24 = or i32 %23, %22
  store i32 %24, ptr %2, align 4
  %25 = load i32, ptr %2, align 4
  %26 = add i32 %25, 1
  store i32 %26, ptr %2, align 4
  %27 = load i32, ptr %2, align 4
  ret i32 %27
}

; Function Attrs: nounwind uwtable
define dso_local i32 @type_size(ptr noundef %0) #0 {
  %2 = alloca i32, align 4
  %3 = alloca ptr, align 8
  %4 = alloca i32, align 4
  %5 = alloca i32, align 4
  store ptr %0, ptr %3, align 8
  br label %6

6:                                                ; preds = %69, %65, %61, %57, %20, %10, %1
  %7 = load ptr, ptr %3, align 8
  %8 = getelementptr inbounds %struct.Type_, ptr %7, i32 0, i32 0
  %9 = load i32, ptr %8, align 8
  switch i32 %9, label %122 [
    i32 29, label %10
    i32 32, label %20
    i32 37, label %29
    i32 42, label %53
    i32 36, label %53
    i32 38, label %53
    i32 39, label %53
    i32 0, label %53
    i32 43, label %53
    i32 41, label %53
    i32 35, label %56
    i32 40, label %57
    i32 31, label %61
    i32 30, label %65
    i32 24, label %69
    i32 26, label %81
    i32 27, label %81
    i32 1, label %89
    i32 28, label %89
    i32 18, label %89
    i32 2, label %90
    i32 22, label %90
    i32 3, label %90
    i32 4, label %90
    i32 5, label %90
    i32 6, label %90
    i32 7, label %90
    i32 8, label %90
    i32 9, label %90
    i32 10, label %90
    i32 11, label %90
    i32 12, label %90
    i32 14, label %90
    i32 13, label %90
    i32 15, label %90
    i32 16, label %90
    i32 17, label %90
    i32 21, label %90
    i32 20, label %96
    i32 19, label %96
    i32 25, label %103
    i32 23, label %103
    i32 33, label %109
    i32 34, label %120
  ]

10:                                               ; preds = %6
  %11 = load ptr, ptr %3, align 8
  %12 = getelementptr inbounds %struct.Type_, ptr %11, i32 0, i32 7
  %13 = load ptr, ptr %12, align 8
  %14 = getelementptr inbounds %struct.Decl_, ptr %13, i32 0, i32 11
  %15 = getelementptr inbounds %struct.anon.6, ptr %14, i32 0, i32 2
  %16 = getelementptr inbounds %struct.BitStructDecl, ptr %15, i32 0, i32 0
  %17 = load ptr, ptr %16, align 8
  %18 = getelementptr inbounds %struct.TypeInfo_, ptr %17, i32 0, i32 1
  %19 = load ptr, ptr %18, align 8
  store ptr %19, ptr %3, align 8
  br label %6

20:                                               ; preds = %6
  %21 = load ptr, ptr %3, align 8
  %22 = getelementptr inbounds %struct.Type_, ptr %21, i32 0, i32 7
  %23 = load ptr, ptr %22, align 8
  %24 = getelementptr inbounds %struct.Decl_, ptr %23, i32 0, i32 11
  %25 = getelementptr inbounds %struct.anon.6, ptr %24, i32 0, i32 2
  %26 = load ptr, ptr %25, align 8
  %27 = getelementptr inbounds %struct.TypeInfo_, ptr %26, i32 0, i32 1
  %28 = load ptr, ptr %27, align 8
  store ptr %28, ptr %3, align 8
  br label %6

29:                                               ; preds = %6
  %30 = load ptr, ptr %3, align 8
  %31 = getelementptr inbounds %struct.Type_, ptr %30, i32 0, i32 7
  %32 = getelementptr inbounds %struct.TypeArray, ptr %31, i32 0, i32 0
  %33 = load ptr, ptr %32, align 8
  %34 = call i32 @type_size(ptr noundef %33)
  %35 = load ptr, ptr %3, align 8
  %36 = getelementptr inbounds %struct.Type_, ptr %35, i32 0, i32 7
  %37 = getelementptr inbounds %struct.TypeArray, ptr %36, i32 0, i32 1
  %38 = load i32, ptr %37, align 8
  %39 = mul i32 %34, %38
  store i32 %39, ptr %4, align 4
  %40 = load i32, ptr %4, align 4
  %41 = load i32, ptr %4, align 4
  %42 = sub i32 %41, 1
  %43 = and i32 %40, %42
  %44 = icmp ne i32 %43, 0
  br i1 %44, label %45, label %51

45:                                               ; preds = %29
  %46 = load i32, ptr %4, align 4
  %47 = call i32 @next_highest_power_of_2(i32 noundef %46)
  store i32 %47, ptr %5, align 4
  %48 = load i32, ptr %4, align 4
  %49 = load i32, ptr %5, align 4
  %50 = call i32 @aligned_offset(i32 noundef %48, i32 noundef %49)
  store i32 %50, ptr %4, align 4
  br label %51

51:                                               ; preds = %45, %29
  %52 = load i32, ptr %4, align 4
  store i32 %52, ptr %2, align 4
  br label %124

53:                                               ; preds = %6, %6, %6, %6, %6, %6, %6
  br label %54

54:                                               ; preds = %53
  call void (ptr, ...) @error_exit(ptr noundef @.str, ptr noundef @.str.17, ptr noundef @__func__.type_size, ptr noundef @.str.2, i32 noundef 306) #7
  unreachable

55:                                               ; No predecessors!
  br label %56

56:                                               ; preds = %55, %6
  store i32 0, ptr %2, align 4
  br label %124

57:                                               ; preds = %6
  %58 = load ptr, ptr %3, align 8
  %59 = getelementptr inbounds %struct.Type_, ptr %58, i32 0, i32 7
  %60 = load ptr, ptr %59, align 8
  store ptr %60, ptr %3, align 8
  br label %6

61:                                               ; preds = %6
  %62 = load ptr, ptr %3, align 8
  %63 = getelementptr inbounds %struct.Type_, ptr %62, i32 0, i32 1
  %64 = load ptr, ptr %63, align 8
  store ptr %64, ptr %3, align 8
  br label %6

65:                                               ; preds = %6
  %66 = load ptr, ptr @type_iptr, align 8
  %67 = getelementptr inbounds %struct.Type_, ptr %66, i32 0, i32 1
  %68 = load ptr, ptr %67, align 8
  store ptr %68, ptr %3, align 8
  br label %6

69:                                               ; preds = %6
  %70 = load ptr, ptr %3, align 8
  %71 = getelementptr inbounds %struct.Type_, ptr %70, i32 0, i32 7
  %72 = load ptr, ptr %71, align 8
  %73 = getelementptr inbounds %struct.Decl_, ptr %72, i32 0, i32 11
  %74 = getelementptr inbounds %struct.anon.6, ptr %73, i32 0, i32 2
  %75 = getelementptr inbounds %struct.EnumDecl, ptr %74, i32 0, i32 2
  %76 = load ptr, ptr %75, align 8
  %77 = getelementptr inbounds %struct.TypeInfo_, ptr %76, i32 0, i32 1
  %78 = load ptr, ptr %77, align 8
  %79 = getelementptr inbounds %struct.Type_, ptr %78, i32 0, i32 1
  %80 = load ptr, ptr %79, align 8
  store ptr %80, ptr %3, align 8
  br label %6

81:                                               ; preds = %6, %6
  %82 = load ptr, ptr %3, align 8
  %83 = getelementptr inbounds %struct.Type_, ptr %82, i32 0, i32 7
  %84 = load ptr, ptr %83, align 8
  %85 = getelementptr inbounds %struct.Decl_, ptr %84, i32 0, i32 11
  %86 = getelementptr inbounds %struct.anon.6, ptr %85, i32 0, i32 2
  %87 = getelementptr inbounds %struct.StructDecl, ptr %86, i32 0, i32 0
  %88 = load i32, ptr %87, align 8
  store i32 %88, ptr %2, align 4
  br label %124

89:                                               ; preds = %6, %6, %6
  store i32 1, ptr %2, align 4
  br label %124

90:                                               ; preds = %6, %6, %6, %6, %6, %6, %6, %6, %6, %6, %6, %6, %6, %6, %6, %6, %6, %6
  %91 = load ptr, ptr %3, align 8
  %92 = getelementptr inbounds %struct.Type_, ptr %91, i32 0, i32 7
  %93 = load i32, ptr %92, align 8
  %94 = lshr i32 %93, 8
  %95 = and i32 %94, 255
  store i32 %95, ptr %2, align 4
  br label %124

96:                                               ; preds = %6, %6
  %97 = load ptr, ptr getelementptr inbounds (%struct.anon, ptr @t, i32 0, i32 19, i32 1), align 8
  %98 = getelementptr inbounds %struct.Type_, ptr %97, i32 0, i32 7
  %99 = load i32, ptr %98, align 8
  %100 = lshr i32 %99, 8
  %101 = and i32 %100, 255
  %102 = mul nsw i32 %101, 2
  store i32 %102, ptr %2, align 4
  br label %124

103:                                              ; preds = %6, %6
  %104 = load ptr, ptr getelementptr inbounds (%struct.anon, ptr @t, i32 0, i32 19, i32 1), align 8
  %105 = getelementptr inbounds %struct.Type_, ptr %104, i32 0, i32 7
  %106 = load i32, ptr %105, align 8
  %107 = lshr i32 %106, 8
  %108 = and i32 %107, 255
  store i32 %108, ptr %2, align 4
  br label %124

109:                                              ; preds = %6
  %110 = load ptr, ptr %3, align 8
  %111 = getelementptr inbounds %struct.Type_, ptr %110, i32 0, i32 7
  %112 = getelementptr inbounds %struct.TypeArray, ptr %111, i32 0, i32 0
  %113 = load ptr, ptr %112, align 8
  %114 = call i32 @type_size(ptr noundef %113)
  %115 = load ptr, ptr %3, align 8
  %116 = getelementptr inbounds %struct.Type_, ptr %115, i32 0, i32 7
  %117 = getelementptr inbounds %struct.TypeArray, ptr %116, i32 0, i32 1
  %118 = load i32, ptr %117, align 8
  %119 = mul i32 %114, %118
  store i32 %119, ptr %2, align 4
  br label %124

120:                                              ; preds = %6
  %121 = load i32, ptr @size_subarray, align 4
  store i32 %121, ptr %2, align 4
  br label %124

122:                                              ; preds = %6
  br label %123

123:                                              ; preds = %122
  call void (ptr, ...) @error_exit(ptr noundef @.str, ptr noundef @.str.17, ptr noundef @__func__.type_size, ptr noundef @.str.2, i32 noundef 347) #7
  unreachable

124:                                              ; preds = %120, %109, %103, %96, %90, %89, %81, %56, %51
  %125 = load i32, ptr %2, align 4
  ret i32 %125
}