; Function Attrs: nounwind uwtable
define dso_local i32 @type_size(ptr nocapture noundef readonly %0) local_unnamed_addr #0 {
  %2 = load ptr, ptr @type_iptr, align 8
  %3 = getelementptr inbounds i8, ptr %2, i64 8
  br label %4

4:                                                ; preds = %.backedge, %1
  %.019 = phi ptr [ %0, %1 ], [ %.019.be, %.backedge ]
  %5 = load i32, ptr %.019, align 8
  switch i32 %5, label %86 [
    i32 29, label %6
    i32 32, label %12
    i32 37, label %18
    i32 42, label %42
    i32 36, label %42
    i32 38, label %42
    i32 39, label %42
    i32 0, label %42
    i32 43, label %42
    i32 41, label %42
    i32 35, label %common.ret.loopexit
    i32 40, label %43
    i32 31, label %45
    i32 30, label %.backedge
    i32 24, label %47
    i32 26, label %55
    i32 27, label %55
    i32 1, label %common.ret82
    i32 28, label %common.ret82
    i32 18, label %common.ret82
    i32 2, label %60
    i32 22, label %60
    i32 3, label %60
    i32 4, label %60
    i32 5, label %60
    i32 6, label %60
    i32 7, label %60
    i32 8, label %60
    i32 9, label %60
    i32 10, label %60
    i32 11, label %60
    i32 12, label %60
    i32 14, label %60
    i32 13, label %60
    i32 15, label %60
    i32 16, label %60
    i32 17, label %60
    i32 21, label %60
    i32 20, label %65
    i32 19, label %65
    i32 25, label %71
    i32 23, label %71
    i32 33, label %77
    i32 34, label %84
  ]

6:                                                ; preds = %4
  %7 = getelementptr inbounds i8, ptr %.019, i64 56
  %8 = load ptr, ptr %7, align 8
  %9 = getelementptr inbounds i8, ptr %8, i64 96
  %10 = load ptr, ptr %9, align 8
  %11 = getelementptr inbounds i8, ptr %10, i64 8
  br label %.backedge

.backedge:                                        ; preds = %4, %6, %12, %43, %45, %47
  %.019.be.in = phi ptr [ %54, %47 ], [ %46, %45 ], [ %44, %43 ], [ %17, %12 ], [ %11, %6 ], [ %3, %4 ]
  %.019.be = load ptr, ptr %.019.be.in, align 8
  br label %4

12:                                               ; preds = %4
  %13 = getelementptr inbounds i8, ptr %.019, i64 56
  %14 = load ptr, ptr %13, align 8
  %15 = getelementptr inbounds i8, ptr %14, i64 96
  %16 = load ptr, ptr %15, align 8
  %17 = getelementptr inbounds i8, ptr %16, i64 8
  br label %.backedge

18:                                               ; preds = %4
  %19 = getelementptr inbounds i8, ptr %.019, i64 56
  %20 = load ptr, ptr %19, align 8
  %21 = tail call i32 @type_size(ptr noundef %20)
  %22 = getelementptr inbounds i8, ptr %.019, i64 64
  %23 = load i32, ptr %22, align 8
  %24 = mul i32 %23, %21
  %25 = tail call i32 @llvm.ctpop.i32(i32 %24), !range !9
  %.not = icmp ult i32 %25, 2
  br i1 %.not, label %common.ret82, label %26

26:                                               ; preds = %18
  %27 = add i32 %24, -1
  %28 = lshr i32 %27, 1
  %29 = or i32 %28, %27
  %30 = lshr i32 %29, 2
  %31 = or i32 %30, %29
  %32 = lshr i32 %31, 4
  %33 = or i32 %32, %31
  %34 = lshr i32 %33, 8
  %35 = or i32 %34, %33
  %36 = lshr i32 %35, 16
  %37 = or i32 %36, %35
  %38 = add i32 %37, 1
  %39 = add i32 %37, %24
  %40 = urem i32 %39, %38
  %41 = sub nuw i32 %39, %40
  br label %common.ret82

42:                                               ; preds = %4, %4, %4, %4, %4, %4, %4
  tail call void (ptr, ...) @error_exit(ptr noundef nonnull @.str, ptr noundef nonnull @.str.17, ptr noundef nonnull @__func__.type_size, ptr noundef nonnull @.str.2, i32 noundef 306) #13
  unreachable

43:                                               ; preds = %4
  %44 = getelementptr inbounds i8, ptr %.019, i64 56
  br label %.backedge

45:                                               ; preds = %4
  %46 = getelementptr inbounds i8, ptr %.019, i64 8
  br label %.backedge

47:                                               ; preds = %4
  %48 = getelementptr inbounds i8, ptr %.019, i64 56
  %49 = load ptr, ptr %48, align 8
  %50 = getelementptr inbounds i8, ptr %49, i64 112
  %51 = load ptr, ptr %50, align 8
  %52 = getelementptr inbounds i8, ptr %51, i64 8
  %53 = load ptr, ptr %52, align 8
  %54 = getelementptr inbounds i8, ptr %53, i64 8
  br label %.backedge

55:                                               ; preds = %4, %4
  %56 = getelementptr inbounds i8, ptr %.019, i64 56
  %57 = load ptr, ptr %56, align 8
  %58 = getelementptr inbounds i8, ptr %57, i64 96
  %59 = load i32, ptr %58, align 8
  br label %common.ret82

60:                                               ; preds = %4, %4, %4, %4, %4, %4, %4, %4, %4, %4, %4, %4, %4, %4, %4, %4, %4, %4
  %61 = getelementptr inbounds i8, ptr %.019, i64 56
  %62 = load i32, ptr %61, align 8
  %63 = lshr i32 %62, 8
  %64 = and i32 %63, 255
  br label %common.ret82

65:                                               ; preds = %4, %4
  %66 = load ptr, ptr getelementptr inbounds (%struct.anon, ptr @t, i64 0, i32 19, i32 1), align 8
  %67 = getelementptr inbounds i8, ptr %66, i64 56
  %68 = load i32, ptr %67, align 8
  %69 = lshr i32 %68, 7
  %70 = and i32 %69, 510
  br label %common.ret82

71:                                               ; preds = %4, %4
  %72 = load ptr, ptr getelementptr inbounds (%struct.anon, ptr @t, i64 0, i32 19, i32 1), align 8
  %73 = getelementptr inbounds i8, ptr %72, i64 56
  %74 = load i32, ptr %73, align 8
  %75 = lshr i32 %74, 8
  %76 = and i32 %75, 255
  br label %common.ret82

common.ret.loopexit:                              ; preds = %4
  br label %common.ret82

common.ret82:                                     ; preds = %18, %26, %84, %71, %65, %60, %55, %common.ret.loopexit, %4, %4, %4, %77
  %common.ret82.op = phi i32 [ %83, %77 ], [ %85, %84 ], [ %76, %71 ], [ %70, %65 ], [ %64, %60 ], [ %59, %55 ], [ %41, %26 ], [ %24, %18 ], [ 0, %common.ret.loopexit ], [ 1, %4 ], [ 1, %4 ], [ 1, %4 ]
  ret i32 %common.ret82.op

77:                                               ; preds = %4
  %78 = getelementptr inbounds i8, ptr %.019, i64 56
  %79 = load ptr, ptr %78, align 8
  %80 = tail call i32 @type_size(ptr noundef %79)
  %81 = getelementptr inbounds i8, ptr %.019, i64 64
  %82 = load i32, ptr %81, align 8
  %83 = mul i32 %82, %80
  br label %common.ret82

84:                                               ; preds = %4
  %85 = load i32, ptr @size_subarray, align 4
  br label %common.ret82

86:                                               ; preds = %4
  tail call void (ptr, ...) @error_exit(ptr noundef nonnull @.str, ptr noundef nonnull @.str.17, ptr noundef nonnull @__func__.type_size, ptr noundef nonnull @.str.2, i32 noundef 347) #13
  unreachable
}